target datalayout = "e-m:e-p270:32:32-p271:32:32-p272:64:64-i64:64-i128:128-f80:128-n8:16:32:64-S128"
target triple = "x86_64-unknown-linux-gnu"

%"class.icu_75::LocaleBased" = type { ptr, ptr }
%"class.icu_75::BreakIterator" = type <{ %"class.icu_75::UObject", [157 x i8], [157 x i8], [157 x i8], i8 }>
%"class.icu_75::UObject" = type { ptr }
%"class.icu_75::Locale" = type <{ %"class.icu_75::UObject", [12 x i8], [6 x i8], [4 x i8], [2 x i8], i32, [4 x i8], ptr, [157 x i8], [3 x i8], ptr, i8, [7 x i8] }>

@_ZL8gService = internal global ptr null, align 8
@.str.3 = private unnamed_addr constant [1 x i8] zeroinitializer, align 1

; Function Attrs: mustprogress nounwind uwtable
define linkonce_odr void @_ZN6icu_7511LocaleBasedC2EPcS1_(ptr noundef nonnull align 8 dereferenceable(16) %this, ptr noundef %validAlias, ptr noundef %actualAlias) unnamed_addr #0 comdat align 2 {
entry:
  %this.addr = alloca ptr, align 8
  %validAlias.addr = alloca ptr, align 8
  %actualAlias.addr = alloca ptr, align 8
  store ptr %this, ptr %this.addr, align 8
  store ptr %validAlias, ptr %validAlias.addr, align 8
  store ptr %actualAlias, ptr %actualAlias.addr, align 8
  %this1 = load ptr, ptr %this.addr, align 8
  %valid = getelementptr inbounds %"class.icu_75::LocaleBased", ptr %this1, i32 0, i32 0
  %0 = load ptr, ptr %validAlias.addr, align 8
  store ptr %0, ptr %valid, align 8
  %actual = getelementptr inbounds %"class.icu_75::LocaleBased", ptr %this1, i32 0, i32 1
  %1 = load ptr, ptr %actualAlias.addr, align 8
  store ptr %1, ptr %actual, align 8
  ret void
}

; Function Attrs: mustprogress nounwind uwtable
define linkonce_odr noundef ptr @_ZNK6icu_756Locale7getNameEv(ptr noundef nonnull align 8 dereferenceable(217) %this) #0 comdat align 2 {
entry:
  %this.addr = alloca ptr, align 8
  store ptr %this, ptr %this.addr, align 8
  %this1 = load ptr, ptr %this.addr, align 8
  %fullName = getelementptr inbounds %"class.icu_75::Locale", ptr %this1, i32 0, i32 7
  %0 = load ptr, ptr %fullName, align 8
  ret ptr %0
}

; Function Attrs: mustprogress nounwind uwtable
define internal noundef signext i8 @_ZL9U_SUCCESS10UErrorCode(i32 noundef %code) #0 {
entry:
  %code.addr = alloca i32, align 4
  store i32 %code, ptr %code.addr, align 4
  %0 = load i32, ptr %code.addr, align 4
  %cmp = icmp sle i32 %0, 0
  %conv = zext i1 %cmp to i8
  ret i8 %conv
}

; Function Attrs: mustprogress nounwind uwtable
define internal noundef signext i8 @_ZL9U_FAILURE10UErrorCode(i32 noundef %code) #0 {
entry:
  %code.addr = alloca i32, align 4
  store i32 %code, ptr %code.addr, align 4
  %0 = load i32, ptr %code.addr, align 4
  %cmp = icmp sgt i32 %0, 0
  %conv = zext i1 %cmp to i8
  ret i8 %conv
}

; Function Attrs: mustprogress uwtable
define noundef ptr @_ZN6icu_7513BreakIterator14createInstanceERKNS_6LocaleEiR10UErrorCode(ptr noundef nonnull align 8 dereferenceable(217) %loc, i32 noundef %kind, ptr noundef nonnull align 4 dereferenceable(4) %status) #1 align 2 personality ptr @__gxx_personality_v0 {
entry:
  %retval = alloca ptr, align 8
  %loc.addr = alloca ptr, align 8
  %kind.addr = alloca i32, align 4
  %status.addr = alloca ptr, align 8
  %actualLoc = alloca %"class.icu_75::Locale", align 8
  %result = alloca ptr, align 8
  %exn.slot = alloca ptr, align 8
  %ehselector.slot = alloca i32, align 4
  %locBased = alloca %"class.icu_75::LocaleBased", align 8
  store ptr %loc, ptr %loc.addr, align 8
  store i32 %kind, ptr %kind.addr, align 4
  store ptr %status, ptr %status.addr, align 8
  %0 = load ptr, ptr %status.addr, align 8
  %1 = load i32, ptr %0, align 4
  %call = call noundef signext i8 @_ZL9U_FAILURE10UErrorCode(i32 noundef %1)
  %tobool = icmp ne i8 %call, 0
  br i1 %tobool, label %if.then, label %if.end

if.then:                                          ; preds = %entry
  store ptr null, ptr %retval, align 8
  br label %return

if.end:                                           ; preds = %entry
  %call1 = call noundef signext i8 @_ZN6icu_75L10hasServiceEv()
  %tobool2 = icmp ne i8 %call1, 0
  br i1 %tobool2, label %if.then3, label %if.else

if.then3:                                         ; preds = %if.end
  call void @_ZN6icu_756LocaleC1EPKcS2_S2_S2_(ptr noundef nonnull align 8 dereferenceable(217) %actualLoc, ptr noundef @.str.3, ptr noundef null, ptr noundef null, ptr noundef null)
  %2 = load ptr, ptr @_ZL8gService, align 8
  %3 = load ptr, ptr %loc.addr, align 8
  %4 = load i32, ptr %kind.addr, align 4
  %5 = load ptr, ptr %status.addr, align 8
  %call4 = invoke noundef ptr @_ZNK6icu_7516ICULocaleService3getERKNS_6LocaleEiPS1_R10UErrorCode(ptr noundef nonnull align 8 dereferenceable(408) %2, ptr noundef nonnull align 8 dereferenceable(217) %3, i32 noundef %4, ptr noundef %actualLoc, ptr noundef nonnull align 4 dereferenceable(4) %5)
          to label %invoke.cont unwind label %lpad

invoke.cont:                                      ; preds = %if.then3
  store ptr %call4, ptr %result, align 8
  %6 = load ptr, ptr %status.addr, align 8
  %7 = load i32, ptr %6, align 4
  %call6 = invoke noundef signext i8 @_ZL9U_SUCCESS10UErrorCode(i32 noundef %7)
          to label %invoke.cont5 unwind label %lpad

invoke.cont5:                                     ; preds = %invoke.cont
  %tobool7 = icmp ne i8 %call6, 0
  br i1 %tobool7, label %land.lhs.true, label %if.end20

land.lhs.true:                                    ; preds = %invoke.cont5
  %8 = load ptr, ptr %result, align 8
  %cmp = icmp ne ptr %8, null
  br i1 %cmp, label %land.lhs.true8, label %if.end20

land.lhs.true8:                                   ; preds = %land.lhs.true
  %call10 = invoke noundef ptr @_ZNK6icu_756Locale7getNameEv(ptr noundef nonnull align 8 dereferenceable(217) %actualLoc)
          to label %invoke.cont9 unwind label %lpad

invoke.cont9:                                     ; preds = %land.lhs.true8
  %9 = load i8, ptr %call10, align 1
  %conv = sext i8 %9 to i32
  %cmp11 = icmp ne i32 %conv, 0
  br i1 %cmp11, label %if.then12, label %if.end20

if.then12:                                        ; preds = %invoke.cont9
  %10 = load ptr, ptr %result, align 8
  %validLocale = getelementptr inbounds %"class.icu_75::BreakIterator", ptr %10, i32 0, i32 2
  %arraydecay = getelementptr inbounds [157 x i8], ptr %validLocale, i64 0, i64 0
  %11 = load ptr, ptr %result, align 8
  %actualLocale = getelementptr inbounds %"class.icu_75::BreakIterator", ptr %11, i32 0, i32 1
  %arraydecay13 = getelementptr inbounds [157 x i8], ptr %actualLocale, i64 0, i64 0
  invoke void @_ZN6icu_7511LocaleBasedC2EPcS1_(ptr noundef nonnull align 8 dereferenceable(16) %locBased, ptr noundef %arraydecay, ptr noundef %arraydecay13)
          to label %invoke.cont14 unwind label %lpad

invoke.cont14:                                    ; preds = %if.then12
  %call16 = invoke noundef ptr @_ZNK6icu_756Locale7getNameEv(ptr noundef nonnull align 8 dereferenceable(217) %actualLoc)
          to label %invoke.cont15 unwind label %lpad

invoke.cont15:                                    ; preds = %invoke.cont14
  %call18 = invoke noundef ptr @_ZNK6icu_756Locale7getNameEv(ptr noundef nonnull align 8 dereferenceable(217) %actualLoc)
          to label %invoke.cont17 unwind label %lpad

invoke.cont17:                                    ; preds = %invoke.cont15
  invoke void @_ZN6icu_7511LocaleBased12setLocaleIDsEPKcS2_(ptr noundef nonnull align 8 dereferenceable(16) %locBased, ptr noundef %call16, ptr noundef %call18)
          to label %invoke.cont19 unwind label %lpad

invoke.cont19:                                    ; preds = %invoke.cont17
  br label %if.end20

lpad:                                             ; preds = %invoke.cont17, %invoke.cont15, %invoke.cont14, %if.then12, %land.lhs.true8, %invoke.cont, %if.then3
  %12 = landingpad { ptr, i32 }
          cleanup
  %13 = extractvalue { ptr, i32 } %12, 0
  store ptr %13, ptr %exn.slot, align 8
  %14 = extractvalue { ptr, i32 } %12, 1
  store i32 %14, ptr %ehselector.slot, align 4
  call void @_ZN6icu_756LocaleD1Ev(ptr noundef nonnull align 8 dereferenceable(217) %actualLoc) #10
  br label %eh.resume

if.end20:                                         ; preds = %invoke.cont19, %invoke.cont9, %land.lhs.true, %invoke.cont5
  %15 = load ptr, ptr %result, align 8
  store ptr %15, ptr %retval, align 8
  call void @_ZN6icu_756LocaleD1Ev(ptr noundef nonnull align 8 dereferenceable(217) %actualLoc) #10
  br label %return

if.else:                                          ; preds = %if.end
  %16 = load ptr, ptr %loc.addr, align 8
  %17 = load i32, ptr %kind.addr, align 4
  %18 = load ptr, ptr %status.addr, align 8
  %call21 = call noundef ptr @_ZN6icu_7513BreakIterator12makeInstanceERKNS_6LocaleEiR10UErrorCode(ptr noundef nonnull align 8 dereferenceable(217) %16, i32 noundef %17, ptr noundef nonnull align 4 dereferenceable(4) %18)
  store ptr %call21, ptr %retval, align 8
  br label %return

return:                                           ; preds = %if.else, %if.end20, %if.then
  %19 = load ptr, ptr %retval, align 8
  ret ptr %19

eh.resume:                                        ; preds = %lpad
  %exn = load ptr, ptr %exn.slot, align 8
  %sel = load i32, ptr %ehselector.slot, align 4
  %lpad.val = insertvalue { ptr, i32 } poison, ptr %exn, 0
  %lpad.val22 = insertvalue { ptr, i32 } %lpad.val, i32 %sel, 1
  resume { ptr, i32 } %lpad.val22
}