; Function Attrs: mustprogress uwtable
define noundef ptr @_ZN6icu_7513BreakIterator14createInstanceERKNS_6LocaleEiR10UErrorCode(ptr noundef nonnull align 8 dereferenceable(217) %loc, i32 noundef %kind, ptr noundef nonnull align 4 dereferenceable(4) %status) local_unnamed_addr #1 align 2 personality ptr @__gxx_personality_v0 {
entry:
  %actualLoc = alloca %"class.icu_75::Locale", align 8
  %locBased = alloca %"class.icu_75::LocaleBased", align 8
  %0 = load i32, ptr %status, align 4
  %cmp.i = icmp slt i32 %0, 1
  br i1 %cmp.i, label %if.end, label %return

if.end:                                           ; preds = %entry
  %call1 = tail call fastcc noundef signext i8 @_ZN6icu_75L10hasServiceEv(), !range !4
  %tobool2.not = icmp eq i8 %call1, 0
  br i1 %tobool2.not, label %if.else, label %if.then3

if.then3:                                         ; preds = %if.end
  call void @_ZN6icu_756LocaleC1EPKcS2_S2_S2_(ptr noundef nonnull align 8 dereferenceable(217) %actualLoc, ptr noundef nonnull @.str.3, ptr noundef null, ptr noundef null, ptr noundef null)
  %1 = load ptr, ptr @_ZL8gService, align 8
  %call4 = invoke noundef ptr @_ZNK6icu_7516ICULocaleService3getERKNS_6LocaleEiPS1_R10UErrorCode(ptr noundef nonnull align 8 dereferenceable(408) %1, ptr noundef nonnull align 8 dereferenceable(217) %loc, i32 noundef %kind, ptr noundef nonnull %actualLoc, ptr noundef nonnull align 4 dereferenceable(4) %status)
          to label %invoke.cont unwind label %lpad

invoke.cont:                                      ; preds = %if.then3
  %2 = load i32, ptr %status, align 4
  %cmp.i9 = icmp slt i32 %2, 1
  %cmp = icmp ne ptr %call4, null
  %or.cond = and i1 %cmp, %cmp.i9
  br i1 %or.cond, label %land.lhs.true8, label %if.end20

land.lhs.true8:                                   ; preds = %invoke.cont
  %fullName.i = getelementptr inbounds i8, ptr %actualLoc, i64 40
  %3 = load ptr, ptr %fullName.i, align 8
  %4 = load i8, ptr %3, align 1
  %cmp11.not = icmp eq i8 %4, 0
  br i1 %cmp11.not, label %if.end20, label %if.then12

if.then12:                                        ; preds = %land.lhs.true8
  %validLocale = getelementptr inbounds i8, ptr %call4, i64 165
  %actualLocale = getelementptr inbounds i8, ptr %call4, i64 8
  store ptr %validLocale, ptr %locBased, align 8
  %actual.i = getelementptr inbounds i8, ptr %locBased, i64 8
  store ptr %actualLocale, ptr %actual.i, align 8
  invoke void @_ZN6icu_7511LocaleBased12setLocaleIDsEPKcS2_(ptr noundef nonnull align 8 dereferenceable(16) %locBased, ptr noundef nonnull %3, ptr noundef nonnull %3)
          to label %if.end20 unwind label %lpad

lpad:                                             ; preds = %if.then12, %if.then3
  %5 = landingpad { ptr, i32 }
          cleanup
  call void @_ZN6icu_756LocaleD1Ev(ptr noundef nonnull align 8 dereferenceable(217) %actualLoc) #18
  resume { ptr, i32 } %5

if.end20:                                         ; preds = %if.then12, %land.lhs.true8, %invoke.cont
  call void @_ZN6icu_756LocaleD1Ev(ptr noundef nonnull align 8 dereferenceable(217) %actualLoc) #18
  br label %return

if.else:                                          ; preds = %if.end
  %call21 = tail call noundef ptr @_ZN6icu_7513BreakIterator12makeInstanceERKNS_6LocaleEiR10UErrorCode(ptr noundef nonnull align 8 dereferenceable(217) %loc, i32 noundef %kind, ptr noundef nonnull align 4 dereferenceable(4) %status)
  br label %return

return:                                           ; preds = %entry, %if.else, %if.end20
  %retval.0 = phi ptr [ %call4, %if.end20 ], [ %call21, %if.else ], [ null, %entry ]
  ret ptr %retval.0
}